target datalayout = "e-m:e-p270:32:32-p271:32:32-p272:64:64-i64:64-i128:128-f80:128-n8:16:32:64-S128"
target triple = "x86_64-pc-linux-gnu"

%struct._gpa_hfinfo_t = type { i32, i32, ptr }
%struct._header_field_info = type { ptr, ptr, i32, i32, ptr, i64, ptr, i32, i32, i32, i32, ptr }

@gpa_hfinfo = internal global %struct._gpa_hfinfo_t zeroinitializer, align 8
@wireshark_abort_on_dissector_bug = external global i8, align 1
@.str = private unnamed_addr constant [5 x i8] c"Epan\00", align 1
@.str.1 = private unnamed_addr constant [13 x i8] c"epan/proto.c\00", align 1
@.str.2 = private unnamed_addr constant [26 x i8] c"Unregistered hf! index=%d\00", align 1
@.str.3 = private unnamed_addr constant [34 x i8] c"%s:%u: failed assertion \22%s\22 (%s)\00", align 1
@.str.5 = private unnamed_addr constant [17 x i8] c"Unregistered hf!\00", align 1
@.str.88 = private unnamed_addr constant [44 x i8] c"hfid > 0 && (unsigned)hfid < gpa_hfinfo.len\00", align 1
@.str.89 = private unnamed_addr constant [35 x i8] c"gpa_hfinfo.hfi[hfid] != ((void*)0)\00", align 1
@.str.90 = private unnamed_addr constant [64 x i8] c"hfinfo->parent > 0 && (unsigned)hfinfo->parent < gpa_hfinfo.len\00", align 1
@.str.91 = private unnamed_addr constant [45 x i8] c"gpa_hfinfo.hfi[hfinfo->parent] != ((void*)0)\00", align 1
@__func__.free_GPtrArray_value = private unnamed_addr constant [21 x i8] c"free_GPtrArray_value\00", align 1

; Function Attrs: null_pointer_is_valid sspstrong uwtable
define internal void @free_GPtrArray_value(ptr noundef %0, ptr noundef %1, ptr noundef %2) #0 {
  %4 = alloca ptr, align 8
  %5 = alloca ptr, align 8
  %6 = alloca ptr, align 8
  %7 = alloca ptr, align 8
  %8 = alloca i32, align 4
  %9 = alloca ptr, align 8
  %10 = alloca ptr, align 8
  store ptr %0, ptr %4, align 8
  store ptr %1, ptr %5, align 8
  store ptr %2, ptr %6, align 8
  call void @llvm.lifetime.start.p0(i64 8, ptr %7) #24
  %11 = load ptr, ptr %5, align 8
  store ptr %11, ptr %7, align 8
  call void @llvm.lifetime.start.p0(i64 4, ptr %8) #24
  %12 = load ptr, ptr %4, align 8
  %13 = ptrtoint ptr %12 to i64
  %14 = trunc i64 %13 to i32
  store i32 %14, ptr %8, align 4
  call void @llvm.lifetime.start.p0(i64 8, ptr %9) #24
  %15 = load i32, ptr %8, align 4
  %16 = icmp eq i32 %15, 0
  br i1 %16, label %21, label %17

17:                                               ; preds = %3
  %18 = load i32, ptr %8, align 4
  %19 = load i32, ptr @gpa_hfinfo, align 8
  %20 = icmp ugt i32 %18, %19
  br i1 %20, label %21, label %26

21:                                               ; preds = %17, %3
  %22 = load i8, ptr @wireshark_abort_on_dissector_bug, align 1, !range !10, !noundef !11
  %23 = trunc i8 %22 to i1
  br i1 %23, label %24, label %26

24:                                               ; preds = %21
  %25 = load i32, ptr %8, align 4
  call void (ptr, i32, ptr, i64, ptr, ptr, ...) @ws_log_fatal_full(ptr noundef @.str, i32 noundef 7, ptr noundef @.str.1, i64 noundef 821, ptr noundef @__func__.free_GPtrArray_value, ptr noundef @.str.2, i32 noundef %25) #27
  unreachable

26:                                               ; preds = %21, %17
  %27 = load i32, ptr %8, align 4
  %28 = icmp sgt i32 %27, 0
  br i1 %28, label %29, label %34

29:                                               ; preds = %26
  %30 = load i32, ptr %8, align 4
  %31 = load i32, ptr @gpa_hfinfo, align 8
  %32 = icmp ult i32 %30, %31
  br i1 %32, label %33, label %34

33:                                               ; preds = %29
  br label %36

34:                                               ; preds = %29, %26
  call void (ptr, ...) @proto_report_dissector_bug(ptr noundef @.str.3, ptr noundef @.str.1, i32 noundef 821, ptr noundef @.str.88, ptr noundef @.str.5) #27
  unreachable

35:                                               ; No predecessors!
  br label %36

36:                                               ; preds = %35, %33
  %37 = load ptr, ptr getelementptr inbounds nuw (%struct._gpa_hfinfo_t, ptr @gpa_hfinfo, i32 0, i32 2), align 8
  %38 = load i32, ptr %8, align 4
  %39 = sext i32 %38 to i64
  %40 = getelementptr ptr, ptr %37, i64 %39
  %41 = load ptr, ptr %40, align 8
  %42 = icmp ne ptr %41, null
  br i1 %42, label %43, label %44

43:                                               ; preds = %36
  br label %46

44:                                               ; preds = %36
  call void (ptr, ...) @proto_report_dissector_bug(ptr noundef @.str.3, ptr noundef @.str.1, i32 noundef 821, ptr noundef @.str.89, ptr noundef @.str.5) #27
  unreachable

45:                                               ; No predecessors!
  br label %46

46:                                               ; preds = %45, %43
  %47 = load ptr, ptr getelementptr inbounds nuw (%struct._gpa_hfinfo_t, ptr @gpa_hfinfo, i32 0, i32 2), align 8
  %48 = load i32, ptr %8, align 4
  %49 = sext i32 %48 to i64
  %50 = getelementptr ptr, ptr %47, i64 %49
  %51 = load ptr, ptr %50, align 8
  store ptr %51, ptr %9, align 8
  %52 = load ptr, ptr %9, align 8
  %53 = getelementptr inbounds nuw %struct._header_field_info, ptr %52, i32 0, i32 9
  %54 = load i32, ptr %53, align 8
  %55 = icmp ne i32 %54, 0
  br i1 %55, label %56, label %118

56:                                               ; preds = %46
  %57 = load ptr, ptr %9, align 8
  %58 = getelementptr inbounds nuw %struct._header_field_info, ptr %57, i32 0, i32 8
  %59 = load i32, ptr %58, align 4
  %60 = icmp ne i32 %59, -1
  br i1 %60, label %61, label %115

61:                                               ; preds = %56
  call void @llvm.lifetime.start.p0(i64 8, ptr %10) #24
  %62 = load ptr, ptr %9, align 8
  %63 = getelementptr inbounds nuw %struct._header_field_info, ptr %62, i32 0, i32 8
  %64 = load i32, ptr %63, align 4
  %65 = icmp eq i32 %64, 0
  br i1 %65, label %72, label %66

66:                                               ; preds = %61
  %67 = load ptr, ptr %9, align 8
  %68 = getelementptr inbounds nuw %struct._header_field_info, ptr %67, i32 0, i32 8
  %69 = load i32, ptr %68, align 4
  %70 = load i32, ptr @gpa_hfinfo, align 8
  %71 = icmp ugt i32 %69, %70
  br i1 %71, label %72, label %79

72:                                               ; preds = %66, %61
  %73 = load i8, ptr @wireshark_abort_on_dissector_bug, align 1, !range !10, !noundef !11
  %74 = trunc i8 %73 to i1
  br i1 %74, label %75, label %79

75:                                               ; preds = %72
  %76 = load ptr, ptr %9, align 8
  %77 = getelementptr inbounds nuw %struct._header_field_info, ptr %76, i32 0, i32 8
  %78 = load i32, ptr %77, align 4
  call void (ptr, i32, ptr, i64, ptr, ptr, ...) @ws_log_fatal_full(ptr noundef @.str, i32 noundef 7, ptr noundef @.str.1, i64 noundef 829, ptr noundef @__func__.free_GPtrArray_value, ptr noundef @.str.2, i32 noundef %78) #27
  unreachable

79:                                               ; preds = %72, %66
  %80 = load ptr, ptr %9, align 8
  %81 = getelementptr inbounds nuw %struct._header_field_info, ptr %80, i32 0, i32 8
  %82 = load i32, ptr %81, align 4
  %83 = icmp sgt i32 %82, 0
  br i1 %83, label %84, label %91

84:                                               ; preds = %79
  %85 = load ptr, ptr %9, align 8
  %86 = getelementptr inbounds nuw %struct._header_field_info, ptr %85, i32 0, i32 8
  %87 = load i32, ptr %86, align 4
  %88 = load i32, ptr @gpa_hfinfo, align 8
  %89 = icmp ult i32 %87, %88
  br i1 %89, label %90, label %91

90:                                               ; preds = %84
  br label %93

91:                                               ; preds = %84, %79
  call void (ptr, ...) @proto_report_dissector_bug(ptr noundef @.str.3, ptr noundef @.str.1, i32 noundef 829, ptr noundef @.str.90, ptr noundef @.str.5) #27
  unreachable

92:                                               ; No predecessors!
  br label %93

93:                                               ; preds = %92, %90
  %94 = load ptr, ptr getelementptr inbounds nuw (%struct._gpa_hfinfo_t, ptr @gpa_hfinfo, i32 0, i32 2), align 8
  %95 = load ptr, ptr %9, align 8
  %96 = getelementptr inbounds nuw %struct._header_field_info, ptr %95, i32 0, i32 8
  %97 = load i32, ptr %96, align 4
  %98 = sext i32 %97 to i64
  %99 = getelementptr ptr, ptr %94, i64 %98
  %100 = load ptr, ptr %99, align 8
  %101 = icmp ne ptr %100, null
  br i1 %101, label %102, label %103

102:                                              ; preds = %93
  br label %105

103:                                              ; preds = %93
  call void (ptr, ...) @proto_report_dissector_bug(ptr noundef @.str.3, ptr noundef @.str.1, i32 noundef 829, ptr noundef @.str.91, ptr noundef @.str.5) #27
  unreachable

104:                                              ; No predecessors!
  br label %105

105:                                              ; preds = %104, %102
  %106 = load ptr, ptr getelementptr inbounds nuw (%struct._gpa_hfinfo_t, ptr @gpa_hfinfo, i32 0, i32 2), align 8
  %107 = load ptr, ptr %9, align 8
  %108 = getelementptr inbounds nuw %struct._header_field_info, ptr %107, i32 0, i32 8
  %109 = load i32, ptr %108, align 4
  %110 = sext i32 %109 to i64
  %111 = getelementptr ptr, ptr %106, i64 %110
  %112 = load ptr, ptr %111, align 8
  store ptr %112, ptr %10, align 8
  %113 = load ptr, ptr %10, align 8
  %114 = getelementptr inbounds nuw %struct._header_field_info, ptr %113, i32 0, i32 9
  store i32 0, ptr %114, align 8
  call void @llvm.lifetime.end.p0(i64 8, ptr %10) #24
  br label %115

115:                                              ; preds = %105, %56
  %116 = load ptr, ptr %9, align 8
  %117 = getelementptr inbounds nuw %struct._header_field_info, ptr %116, i32 0, i32 9
  store i32 0, ptr %117, align 8
  br label %118

118:                                              ; preds = %115, %46
  %119 = load ptr, ptr %7, align 8
  %120 = call ptr @g_ptr_array_free(ptr noundef %119, i32 noundef 1)
  call void @llvm.lifetime.end.p0(i64 8, ptr %9) #24
  call void @llvm.lifetime.end.p0(i64 4, ptr %8) #24
  call void @llvm.lifetime.end.p0(i64 8, ptr %7) #24
  ret void
}