; Function Attrs: null_pointer_is_valid sspstrong uwtable
define internal void @free_GPtrArray_value(ptr noundef %0, ptr noundef %1, ptr readnone captures(none) %2) #0 {
  %4 = ptrtoint ptr %0 to i64
  %5 = trunc i64 %4 to i32
  %6 = load i32, ptr @gpa_hfinfo.0, align 8
  %7 = freeze i32 %6
  %8 = add i32 %5, -1
  %or.cond.not = icmp ult i32 %8, %7
  br i1 %or.cond.not, label %13, label %9

9:                                                ; preds = %3
  %10 = load i8, ptr @wireshark_abort_on_dissector_bug, align 1, !range !10, !noundef !11
  %11 = trunc nuw i8 %10 to i1
  br i1 %11, label %12, label %13

12:                                               ; preds = %9
  tail call void (ptr, i32, ptr, i64, ptr, ptr, ...) @ws_log_fatal_full(ptr noundef nonnull @.str, i32 noundef 7, ptr noundef nonnull @.str.1, i64 noundef 821, ptr noundef nonnull @__func__.free_GPtrArray_value, ptr noundef nonnull @.str.2, i32 noundef %5) #37
  unreachable

13:                                               ; preds = %3, %9
  %14 = icmp sgt i32 %5, 0
  %15 = icmp ugt i32 %7, %5
  %or.cond31 = and i1 %14, %15
  br i1 %or.cond31, label %17, label %16

16:                                               ; preds = %13
  tail call void (ptr, ...) @proto_report_dissector_bug(ptr noundef nonnull @.str.3, ptr noundef nonnull @.str.1, i32 noundef 821, ptr noundef nonnull @.str.88, ptr noundef nonnull @.str.5) #37
  unreachable

17:                                               ; preds = %13
  %18 = load ptr, ptr @gpa_hfinfo.2, align 8
  %19 = and i64 %4, 2147483647
  %20 = getelementptr ptr, ptr %18, i64 %19
  %21 = load ptr, ptr %20, align 8
  %.not = icmp eq ptr %21, null
  br i1 %.not, label %22, label %23

22:                                               ; preds = %17
  tail call void (ptr, ...) @proto_report_dissector_bug(ptr noundef nonnull @.str.3, ptr noundef nonnull @.str.1, i32 noundef 821, ptr noundef nonnull @.str.89, ptr noundef nonnull @.str.5) #37
  unreachable

23:                                               ; preds = %17
  %24 = getelementptr inbounds nuw i8, ptr %21, i64 56
  %25 = load i32, ptr %24, align 8
  %.not25 = icmp eq i32 %25, 0
  br i1 %.not25, label %47, label %26

26:                                               ; preds = %23
  %27 = getelementptr inbounds nuw i8, ptr %21, i64 52
  %28 = load i32, ptr %27, align 4
  switch i32 %28, label %29 [
    i32 -1, label %46
    i32 0, label %31
  ]

29:                                               ; preds = %26
  %30 = icmp ugt i32 %28, %7
  br i1 %30, label %31, label %35

31:                                               ; preds = %26, %29
  %32 = load i8, ptr @wireshark_abort_on_dissector_bug, align 1, !range !10, !noundef !11
  %33 = trunc nuw i8 %32 to i1
  br i1 %33, label %34, label %35

34:                                               ; preds = %31
  tail call void (ptr, i32, ptr, i64, ptr, ptr, ...) @ws_log_fatal_full(ptr noundef nonnull @.str, i32 noundef 7, ptr noundef nonnull @.str.1, i64 noundef 829, ptr noundef nonnull @__func__.free_GPtrArray_value, ptr noundef nonnull @.str.2, i32 noundef %28) #37
  unreachable

35:                                               ; preds = %31, %29
  %36 = icmp sgt i32 %28, 0
  %37 = icmp ult i32 %28, %7
  %or.cond30 = and i1 %36, %37
  br i1 %or.cond30, label %39, label %38

38:                                               ; preds = %35
  tail call void (ptr, ...) @proto_report_dissector_bug(ptr noundef nonnull @.str.3, ptr noundef nonnull @.str.1, i32 noundef 829, ptr noundef nonnull @.str.90, ptr noundef nonnull @.str.5) #37
  unreachable

39:                                               ; preds = %35
  %40 = zext nneg i32 %28 to i64
  %41 = getelementptr ptr, ptr %18, i64 %40
  %42 = load ptr, ptr %41, align 8
  %.not27 = icmp eq ptr %42, null
  br i1 %.not27, label %43, label %44

43:                                               ; preds = %39
  tail call void (ptr, ...) @proto_report_dissector_bug(ptr noundef nonnull @.str.3, ptr noundef nonnull @.str.1, i32 noundef 829, ptr noundef nonnull @.str.91, ptr noundef nonnull @.str.5) #37
  unreachable

44:                                               ; preds = %39
  %45 = getelementptr inbounds nuw i8, ptr %42, i64 56
  store i32 0, ptr %45, align 8
  br label %46

46:                                               ; preds = %26, %44
  store i32 0, ptr %24, align 8
  br label %47

47:                                               ; preds = %46, %23
  %48 = tail call ptr @g_ptr_array_free(ptr noundef %1, i32 noundef 1)
  ret void
}